; Function Attrs: mustprogress nofree norecurse nosync nounwind willreturn memory(read, inaccessiblemem: none) uwtable
define dso_local ptr @WPACKET_get_curr(ptr noundef readonly captures(none) %0) local_unnamed_addr #3 {
  %2 = getelementptr inbounds nuw i8, ptr %0, i64 8
  %3 = load ptr, ptr %2, align 8, !tbaa !20
  %.not = icmp eq ptr %3, null
  br i1 %.not, label %4, label %.thread17

4:                                                ; preds = %1
  %5 = load ptr, ptr %0, align 8, !tbaa !17
  %.not15 = icmp eq ptr %5, null
  br i1 %.not15, label %.thread, label %6

6:                                                ; preds = %4
  %7 = getelementptr inbounds nuw i8, ptr %5, i64 8
  %8 = load ptr, ptr %7, align 8, !tbaa !21
  %9 = icmp eq ptr %8, null
  br i1 %9, label %.thread, label %.thread17

.thread17:                                        ; preds = %1, %6
  %10 = phi ptr [ %8, %6 ], [ %3, %1 ]
  %11 = getelementptr inbounds nuw i8, ptr %0, i64 48
  %12 = load i8, ptr %11, align 8
  %13 = and i8 %12, 1
  %.not16 = icmp eq i8 %13, 0
  br i1 %.not16, label %22, label %14

14:                                               ; preds = %.thread17
  %15 = getelementptr inbounds nuw i8, ptr %0, i64 32
  %16 = load i64, ptr %15, align 8, !tbaa !15
  %17 = getelementptr inbounds nuw i8, ptr %10, i64 %16
  %18 = getelementptr inbounds nuw i8, ptr %0, i64 16
  %19 = load i64, ptr %18, align 8, !tbaa !22
  %20 = sub i64 0, %19
  %21 = getelementptr inbounds i8, ptr %17, i64 %20
  br label %.thread

22:                                               ; preds = %.thread17
  %23 = getelementptr inbounds nuw i8, ptr %0, i64 16
  %24 = load i64, ptr %23, align 8, !tbaa !22
  %25 = getelementptr inbounds nuw i8, ptr %10, i64 %24
  br label %.thread

.thread:                                          ; preds = %4, %6, %22, %14
  %.0 = phi ptr [ %21, %14 ], [ %25, %22 ], [ null, %6 ], [ null, %4 ]
  ret ptr %.0
}